; Function Attrs: mustprogress nofree norecurse nosync nounwind willreturn memory(argmem: readwrite) uwtable
define void @ff_vvc_clip_mv(ptr noundef captures(none) %0) local_unnamed_addr #0 {
  %2 = load i32, ptr %0, align 4, !tbaa !4
  %3 = tail call i32 @llvm.smax.i32(i32 %2, i32 -131072)
  %.0.i = tail call i32 @llvm.smin.i32(i32 %3, i32 131071)
  store i32 %.0.i, ptr %0, align 4, !tbaa !4
  %4 = getelementptr inbounds nuw i8, ptr %0, i64 4
  %5 = load i32, ptr %4, align 4, !tbaa !9
  %6 = tail call i32 @llvm.smax.i32(i32 %5, i32 -131072)
  %.0.i5 = tail call i32 @llvm.smin.i32(i32 %6, i32 131071)
  store i32 %.0.i5, ptr %4, align 4, !tbaa !9
  ret void
}